; Function Attrs: mustprogress uwtable
define void @_ZN9grpc_core33XdsClusterSpecifierPluginRegistry14RegisterPluginESt10unique_ptrINS_29XdsClusterSpecifierPluginImplESt14default_deleteIS2_EE(ptr noundef nonnull align 8 dereferenceable(48) %0, ptr noundef captures(none) %1) local_unnamed_addr #4 align 2 personality ptr @__gxx_personality_v0 {
  %3 = alloca %"class.std::basic_string_view", align 8
  call void @llvm.lifetime.start.p0(i64 16, ptr nonnull %3) #24
  %4 = load ptr, ptr %1, align 8, !tbaa !89
  %5 = load ptr, ptr %4, align 8, !tbaa !84
  %6 = getelementptr inbounds nuw i8, ptr %5, i64 16
  %7 = load ptr, ptr %6, align 8
  %8 = tail call { i64, ptr } %7(ptr noundef nonnull align 8 dereferenceable(8) %4)
  %9 = extractvalue { i64, ptr } %8, 0
  store i64 %9, ptr %3, align 8
  %10 = getelementptr inbounds nuw i8, ptr %3, i64 8
  %11 = extractvalue { i64, ptr } %8, 1
  store ptr %11, ptr %10, align 8
  %12 = call noundef nonnull align 8 dereferenceable(8) ptr @_ZNSt3mapISt17basic_string_viewIcSt11char_traitsIcEESt10unique_ptrIN9grpc_core29XdsClusterSpecifierPluginImplESt14default_deleteIS6_EESt4lessIS3_ESaISt4pairIKS3_S9_EEEixERSD_(ptr noundef nonnull align 8 dereferenceable(48) %0, ptr noundef nonnull align 8 dereferenceable(16) %3)
  %13 = load ptr, ptr %1, align 8, !tbaa !89
  store ptr null, ptr %1, align 8, !tbaa !89
  %14 = load ptr, ptr %12, align 8, !tbaa !89
  store ptr %13, ptr %12, align 8, !tbaa !89
  %.not.i.i.i.i = icmp eq ptr %14, null
  br i1 %.not.i.i.i.i, label %_ZNSt10unique_ptrIN9grpc_core29XdsClusterSpecifierPluginImplESt14default_deleteIS1_EEaSEOS4_.exit, label %_ZNKSt14default_deleteIN9grpc_core29XdsClusterSpecifierPluginImplEEclEPS1_.exit.i.i.i.i

_ZNKSt14default_deleteIN9grpc_core29XdsClusterSpecifierPluginImplEEclEPS1_.exit.i.i.i.i: ; preds = %2
  %15 = load ptr, ptr %14, align 8, !tbaa !84
  %16 = getelementptr inbounds nuw i8, ptr %15, i64 8
  %17 = load ptr, ptr %16, align 8
  call void %17(ptr noundef nonnull align 8 dereferenceable(8) %14) #24
  br label %_ZNSt10unique_ptrIN9grpc_core29XdsClusterSpecifierPluginImplESt14default_deleteIS1_EEaSEOS4_.exit

_ZNSt10unique_ptrIN9grpc_core29XdsClusterSpecifierPluginImplESt14default_deleteIS1_EEaSEOS4_.exit: ; preds = %2, %_ZNKSt14default_deleteIN9grpc_core29XdsClusterSpecifierPluginImplEEclEPS1_.exit.i.i.i.i
  call void @llvm.lifetime.end.p0(i64 16, ptr nonnull %3) #24
  ret void
}